; Function Attrs: nounwind uwtable
define internal void @gvevent_refresh(ptr noundef %0) #2 {
  %2 = load ptr, ptr %0, align 8, !tbaa !38
  %3 = getelementptr inbounds nuw i8, ptr %2, i64 304
  %4 = load ptr, ptr %3, align 8, !tbaa !39
  %5 = getelementptr inbounds nuw i8, ptr %0, i64 712
  %6 = load ptr, ptr %5, align 8, !tbaa !54
  %.not = icmp eq ptr %6, null
  br i1 %.not, label %7, label %gv_graph_state.exit

7:                                                ; preds = %1
  store ptr %4, ptr %5, align 8, !tbaa !54
  %8 = getelementptr inbounds nuw i8, ptr %4, i64 16
  %9 = load ptr, ptr %8, align 8, !tbaa !55
  %10 = getelementptr inbounds nuw i8, ptr %9, i64 128
  %11 = load i8, ptr %10, align 8, !tbaa !59
  %12 = or i8 %11, 2
  store i8 %12, ptr %10, align 8, !tbaa !59
  %13 = tail call ptr @agattr(ptr noundef %4, i32 noundef 0, ptr noundef nonnull @.str.14, ptr noundef null) #11
  %.not.i = icmp eq ptr %13, null
  br i1 %.not.i, label %14, label %.thread.i

14:                                               ; preds = %7
  %15 = tail call ptr @agattr(ptr noundef nonnull %4, i32 noundef 0, ptr noundef nonnull @.str.15, ptr noundef null) #11
  %.not9.i = icmp eq ptr %15, null
  br i1 %.not9.i, label %gv_graph_state.exit, label %.thread.i

.thread.i:                                        ; preds = %14, %7
  %.012.i = phi ptr [ %15, %14 ], [ %13, %7 ]
  %16 = tail call ptr @agxget(ptr noundef nonnull %4, ptr noundef nonnull %.012.i) #11
  %17 = tail call ptr @strdup_and_subst_obj(ptr noundef %16, ptr noundef nonnull %4) #11
  %18 = getelementptr inbounds nuw i8, ptr %0, i64 728
  store ptr %17, ptr %18, align 8, !tbaa !72
  br label %gv_graph_state.exit

gv_graph_state.exit:                              ; preds = %.thread.i, %14, %1
  tail call void @emit_graph(ptr noundef nonnull %0, ptr noundef %4) #11
  %19 = getelementptr inbounds nuw i8, ptr %0, i64 668
  store i8 1, ptr %19, align 4, !tbaa !73
  ret void
}